@ Copyright (C) 2015 PSP2SDK Project
@
@ This Source Code Form is subject to the terms of the Mozilla Public
@ License, v. 2.0. If a copy of the MPL was not distributed with this
@ file, You can obtain one at http://mozilla.org/MPL/2.0/.

#include <psp2/import.S>

PSP2_IMPORT_HEAD 0x0, SceLibXml, 0001, 1, 0

PSP2_IMPORT_FUNC SceLibXml, 0001, F00, 0x016a9adb, _ZN3sce3Xml3Dom8Document12setAttrValueEyPKNS0_6StringES5_
PSP2_IMPORT_FUNC SceLibXml, 0001, F00, 0x02e8f7fa, _ZN3sce3Xml3Sax6ParserD2Ev
PSP2_IMPORT_FUNC SceLibXml, 0001, F00, 0x035f013b, _ZN3sce3Xml6StringC1EPKc
PSP2_IMPORT_FUNC SceLibXml, 0001, F00, 0x0580c02e, _ZN3sce3Xml3Dom8NodeListC1Ev
PSP2_IMPORT_FUNC SceLibXml, 0001, F00, 0x0667b08d, _ZN3sce3Xml3Dom8Document16setAttributeListEyPKNS0_13AttributeListE
PSP2_IMPORT_FUNC SceLibXml, 0001, F00, 0x088c100e, _ZN3sce3Xml3Dom4NodeC1Ey
PSP2_IMPORT_FUNC SceLibXml, 0001, F00, 0x0b3ae81b, _ZN3sce3Xml4AttrC2Ev
PSP2_IMPORT_FUNC SceLibXml, 0001, F00, 0x0b5461e0, _ZN3sce3Xml6StringC1EPKcj
PSP2_IMPORT_FUNC SceLibXml, 0001, F00, 0x0c1ddec5, _ZNK3sce3Xml3Dom8Document14getSkippedTextEy
PSP2_IMPORT_FUNC SceLibXml, 0001, F00, 0x0cbc1c3f, _ZN3sce3Xml3Dom8Document12importParentEPKS2_y
PSP2_IMPORT_FUNC SceLibXml, 0001, F00, 0x0d119ab3, _ZNK3sce3Xml3Dom4Node11isAvailableEv
PSP2_IMPORT_FUNC SceLibXml, 0001, F00, 0x10530611, _ZNK3sce3Xml3Dom8NodeList11isAvailableEv
PSP2_IMPORT_FUNC SceLibXml, 0001, F00, 0x117bea8a, _ZNK3sce3Xml3Dom4Node13getChildNodesEv
PSP2_IMPORT_FUNC SceLibXml, 0001, F00, 0x11a5f0a3, _ZN3sce3Xml3Dom8DocumentD2Ev
PSP2_IMPORT_FUNC SceLibXml, 0001, F00, 0x11fe5a65, _ZN3sce3Xml13AttributeList9terminateEv
PSP2_IMPORT_FUNC SceLibXml, 0001, F00, 0x161ba85e, _ZNK3sce3Xml3Dom8Document9getEntityEy
PSP2_IMPORT_FUNC SceLibXml, 0001, F00, 0x1633846d, _ZNK3sce3Xml4Attr11isAvailableEv
PSP2_IMPORT_FUNC SceLibXml, 0001, F00, 0x18686b94, _ZN3sce3Xml3Dom8Document10insertNodeEyyy
PSP2_IMPORT_FUNC SceLibXml, 0001, F00, 0x18758863, _ZN3sce3Xml6StringaSERKS1_
PSP2_IMPORT_FUNC SceLibXml, 0001, F00, 0x19d0e024, _ZN3sce3Xml3Dom15DocumentBuilderD1Ev
PSP2_IMPORT_FUNC SceLibXml, 0001, F00, 0x1a29526b, _ZN3sce3Xml3Dom15DocumentBuilder11getDocumentEv
PSP2_IMPORT_FUNC SceLibXml, 0001, F00, 0x1a46c0e1, _ZNK3sce3Xml3Dom4Node14getNextSiblingEv
PSP2_IMPORT_FUNC SceLibXml, 0001, F00, 0x1b0b3976, _ZN3sce3Xml13AttributeListD2Ev
PSP2_IMPORT_FUNC SceLibXml, 0001, F00, 0x1b2442a0, _ZN3sce3Xml3Sax6Parser18setDocumentHandlerEPNS1_15DocumentHandlerE
PSP2_IMPORT_FUNC SceLibXml, 0001, F00, 0x1b98bdbe, _ZN3sce3Xml3Dom4Node12insertBeforeEyy
PSP2_IMPORT_FUNC SceLibXml, 0001, F00, 0x1be022ea, _ZN3sce3Xml12MemAllocatorD2Ev
PSP2_IMPORT_FUNC SceLibXml, 0001, F00, 0x1dd41c7a, _ZN3sce3Xml3Dom8DocumentC1ERKS2_
PSP2_IMPORT_FUNC SceLibXml, 0001, F00, 0x22dbb221, _ZNK3sce3Xml3Dom8Document10getDocRootEv
PSP2_IMPORT_FUNC SceLibXml, 0001, F00, 0x241efc0e, _ZN3sce3Xml3Dom4NodeD2Ev
PSP2_IMPORT_FUNC SceLibXml, 0001, F00, 0x243e6731, _ZN3sce3Xml3Dom4Node11appendChildEy
PSP2_IMPORT_FUNC SceLibXml, 0001, F00, 0x26ba1e6e, _ZNK3sce3Xml3Dom4Node13hasAttributesEv
PSP2_IMPORT_FUNC SceLibXml, 0001, F00, 0x28fd79e3, _ZNK3sce3Xml3Dom8Document11isAvailableEv
PSP2_IMPORT_FUNC SceLibXml, 0001, F00, 0x29824cd5, _ZN3sce3Xml11Initializer9terminateEv
PSP2_IMPORT_FUNC SceLibXml, 0001, F00, 0x2cb61a7c, _ZN3sce3Xml20bXResultToResultTypeEi
PSP2_IMPORT_FUNC SceLibXml, 0001, F00, 0x2d370226, _ZNK3sce3Xml3Dom8Document10getXmlMetaEv
PSP2_IMPORT_FUNC SceLibXml, 0001, F00, 0x2df80037, _ZN3sce3Xml3Dom8NodeListD2Ev
PSP2_IMPORT_FUNC SceLibXml, 0001, F00, 0x3028e05d, _ZNK3sce3Xml3Dom8Document13getFirstChildEy
PSP2_IMPORT_FUNC SceLibXml, 0001, F00, 0x30520b78, _ZN3sce3Xml14VarAllocBuffer4copyEPKhjb
PSP2_IMPORT_FUNC SceLibXml, 0001, F00, 0x32b396ad, _ZN3sce3Xml3Dom8NodeList9terminateEv
PSP2_IMPORT_FUNC SceLibXml, 0001, F00, 0x35134b85, _ZNK3sce3Xml4Attr7getNameEv
PSP2_IMPORT_FUNC SceLibXml, 0001, F00, 0x35c50b8b, _ZN3sce3Xml3Dom8Document13createElementEPKNS0_6StringEPKNS0_13AttributeListES5_
PSP2_IMPORT_FUNC SceLibXml, 0001, F00, 0x36acff5e, _ZNK3sce3Xml3Dom8Document7getTextEy
PSP2_IMPORT_FUNC SceLibXml, 0001, F00, 0x36f6bdf2, _ZN3sce3Xml3Dom15DocumentBuilderC2Ev
PSP2_IMPORT_FUNC SceLibXml, 0001, F00, 0x38861841, _ZN3sce3Xml13AttributeListD1Ev
PSP2_IMPORT_FUNC SceLibXml, 0001, F00, 0x38aeb52e, _ZNK3sce3Xml13AttributeList9getLengthEv
PSP2_IMPORT_FUNC SceLibXml, 0001, F00, 0x3ca958d3, _ZN3sce3Xml3Dom4Node11removeChildEy
PSP2_IMPORT_FUNC SceLibXml, 0001, F00, 0x3e8122ab, _ZNK3sce3Xml3Dom4Node16getOwnerDocumentEv
PSP2_IMPORT_FUNC SceLibXml, 0001, F00, 0x3fd63fb8, _ZNK3sce3Xml3Dom4Node12getLastChildEv
PSP2_IMPORT_FUNC SceLibXml, 0001, F00, 0x42d59053, _ZN3sce3Xml3Dom15DocumentBuilder9terminateEv
PSP2_IMPORT_FUNC SceLibXml, 0001, F00, 0x44caf9e1, _ZN3sce3Xml3Dom4NodeC2Ey
PSP2_IMPORT_FUNC SceLibXml, 0001, F00, 0x457cce55, _ZN3sce3Xml6StringC2EPKcj
PSP2_IMPORT_FUNC SceLibXml, 0001, F00, 0x471a22e8, _ZNK3sce3Xml3Dom8Document11getNodeNameEy
PSP2_IMPORT_FUNC SceLibXml, 0001, F00, 0x49263ce5, _ZN3sce3Xml3Dom8Document11removeChildEyy
PSP2_IMPORT_FUNC SceLibXml, 0001, F00, 0x4b7321fb, _ZN3sce3Xml3Dom8Document9terminateEv
PSP2_IMPORT_FUNC SceLibXml, 0001, F00, 0x4cf0656b, _ZN3sce3Xml10SimpleDataC2EPKcj
PSP2_IMPORT_FUNC SceLibXml, 0001, F00, 0x4db998e6, _ZN3sce3Xml3Sax6Parser11setUserDataEPv
PSP2_IMPORT_FUNC SceLibXml, 0001, F00, 0x4f2d5541, _ZNK3sce3Xml3Dom4Node12getNodeValueEv
PSP2_IMPORT_FUNC SceLibXml, 0001, F00, 0x4f30f0cc, _ZNK3sce3Xml13AttributeList12getAttributeEPKNS0_6StringE
PSP2_IMPORT_FUNC SceLibXml, 0001, F00, 0x508e9150, _ZN3sce3Xml3Dom8NodeList5clearEv
PSP2_IMPORT_FUNC SceLibXml, 0001, F00, 0x542076d8, _ZN3sce3Xml13AttributeListC1Ev
PSP2_IMPORT_FUNC SceLibXml, 0001, F00, 0x56002b9d, _ZN3sce3Xml12MemAllocatorD1Ev
PSP2_IMPORT_FUNC SceLibXml, 0001, F00, 0x56390ca0, _ZN3sce3Xml3Sax6ParserC2Ev
PSP2_IMPORT_FUNC SceLibXml, 0001, F00, 0x57400a1a, _ZN3sce3Xml10SimpleDataC1EPKcj
PSP2_IMPORT_FUNC SceLibXml, 0001, F00, 0x58854322, _ZNK3sce3Xml13AttributeList11isAvailableEv
PSP2_IMPORT_FUNC SceLibXml, 0001, F00, 0x58e349a5, _ZN3sce3Xml4AttrD1Ev
PSP2_IMPORT_FUNC SceLibXml, 0001, F00, 0x59c5e9b2, _ZN3sce3Xml23getMemManagerDebugLevelEv
PSP2_IMPORT_FUNC SceLibXml, 0001, F00, 0x5d49542a, _ZN3sce3Xml13AttributeListC2Ev
PSP2_IMPORT_FUNC SceLibXml, 0001, F00, 0x5ed0b2f9, _ZNK3sce3Xml13AttributeList12getAttributeEj
PSP2_IMPORT_FUNC SceLibXml, 0001, F00, 0x60bf9988, _ZN3sce3Xml3Sax6ParserC1Ev
PSP2_IMPORT_FUNC SceLibXml, 0001, F00, 0x6220e98b, _ZN3sce3Xml3Dom8Document15addElementChildEyPKNS0_6StringEPKNS0_13AttributeListES5_
PSP2_IMPORT_FUNC SceLibXml, 0001, F00, 0x62d3cb44, _ZNK3sce3Xml3Dom8Document11getNodeTypeEy
PSP2_IMPORT_FUNC SceLibXml, 0001, F00, 0x639d219c, _ZNK3sce3Xml3Dom4Node13getFirstChildEv
PSP2_IMPORT_FUNC SceLibXml, 0001, F00, 0x66d1b605, _ZN3sce3Xml4Attr7setNameEPKNS0_6StringE
PSP2_IMPORT_FUNC SceLibXml, 0001, F00, 0x67191cc6, _ZN3sce3Xml6StringC1ERKS1_
PSP2_IMPORT_FUNC SceLibXml, 0001, F00, 0x67e0df2b, _ZN3sce3Xml4Attr9terminateEv
PSP2_IMPORT_FUNC SceLibXml, 0001, F00, 0x684e57b9, _ZN3sce3Xml3Dom8NodeListC2Ev
PSP2_IMPORT_FUNC SceLibXml, 0001, F00, 0x6a16c2ff, _ZN3sce3Xml3Dom8Document10importNodeEyyPKS2_y
PSP2_IMPORT_FUNC SceLibXml, 0001, F00, 0x6c1913e9, _ZNK3sce3Xml3Dom4Node13hasChildNodesEv
PSP2_IMPORT_FUNC SceLibXml, 0001, F00, 0x6e1f1ffb, _ZNK3sce3Xml3Dom13DocumentDebug16getCharTableSizeEv
PSP2_IMPORT_FUNC SceLibXml, 0001, F00, 0x702492ea, _ZN3sce3Xml3Dom15DocumentBuilderC1Ev
PSP2_IMPORT_FUNC SceLibXml, 0001, F00, 0x70d9fc8e, _ZN3sce3Xml3Sax6Parser5parseEPKNS0_6StringEb
PSP2_IMPORT_FUNC SceLibXml, 0001, F00, 0x7744dd14, _ZN3sce3Xml3Dom15DocumentBuilder5parseEPKNS0_6StringEb
PSP2_IMPORT_FUNC SceLibXml, 0001, F00, 0x779036ab, _ZN3sce3Xml3Dom8Document16removeAttributesEy
PSP2_IMPORT_FUNC SceLibXml, 0001, F00, 0x7834a2f7, _ZNK3sce3Xml4Attr8getValueEv
PSP2_IMPORT_FUNC SceLibXml, 0001, F00, 0x7a889374, _ZN3sce3Xml3Dom8NodeList10insertLastEy
PSP2_IMPORT_FUNC SceLibXml, 0001, F00, 0x7b0a8f6c, _ZN3sce3Xml3Dom8Document11setWritableEv
PSP2_IMPORT_FUNC SceLibXml, 0001, F00, 0x7b7107ad, _ZN3sce3Xml3Dom8DocumentC1Ev
PSP2_IMPORT_FUNC SceLibXml, 0001, F00, 0x7c6a03fd, _ZNK3sce3Xml3Dom8Document12getAttrValueEy
PSP2_IMPORT_FUNC SceLibXml, 0001, F00, 0x7d5a0041, _ZN3sce3Xml14VarAllocBuffer5clearEv
PSP2_IMPORT_FUNC SceLibXml, 0001, F00, 0x7dd3059d, _ZN3sce3Xml4Attr8setValueEPKNS0_6StringE
PSP2_IMPORT_FUNC SceLibXml, 0001, F00, 0x7e582075, _ZN3sce3Xml10SimpleDataC1Ev
PSP2_IMPORT_FUNC SceLibXml, 0001, F00, 0x8045d9c2, _ZN3sce3Xml14VarAllocBufferC1EPKNS0_11InitializerE
PSP2_IMPORT_FUNC SceLibXml, 0001, F00, 0x82747f92, _ZN3sce3Xml14VarAllocBuffer7reserveEj
PSP2_IMPORT_FUNC SceLibXml, 0001, F00, 0x860cc706, _ZN3sce3Xml3Dom8NodeList10initializeEPKNS0_11InitializerE
PSP2_IMPORT_FUNC SceLibXml, 0001, F00, 0x874c8331, _ZN3sce3Xml3Sax6Parser10initializeEPKNS0_11InitializerE
PSP2_IMPORT_FUNC SceLibXml, 0001, F00, 0x87c89447, _ZN3sce3Xml13AttributeListC2ERKS1_
PSP2_IMPORT_FUNC SceLibXml, 0001, F00, 0x87f8b4da, _ZN3sce3Xml3Dom8Document9serializeEPKNS0_18SerializeParameterEPNS0_6StringE
PSP2_IMPORT_FUNC SceLibXml, 0001, F00, 0x8816f7ef, _ZN3sce3Xml6StringC2Ev
PSP2_IMPORT_FUNC SceLibXml, 0001, F00, 0x883e1bfc, _ZNK3sce3Xml3Dom8Document11getNextAttrEy
PSP2_IMPORT_FUNC SceLibXml, 0001, F00, 0x89aa847e, _ZN3sce3Xml13AttributeList10initializeEPKNS0_11InitializerE
PSP2_IMPORT_FUNC SceLibXml, 0001, F00, 0x8a4b9379, _ZN3sce3Xml14VarAllocBufferD2Ev
PSP2_IMPORT_FUNC SceLibXml, 0001, F00, 0x8d19723f, _ZN3sce3Xml3Dom8Document14createTextNodeEPKNS0_6StringE
PSP2_IMPORT_FUNC SceLibXml, 0001, F00, 0x8d387e01, _ZN3sce3Xml12MemAllocatorC1Ev
PSP2_IMPORT_FUNC SceLibXml, 0001, F00, 0x8f2eb967, _ZN3sce3Xml3Dom4NodeD1Ev
PSP2_IMPORT_FUNC SceLibXml, 0001, F00, 0x8f9cee10, _ZNK3sce3Xml3Dom13DocumentDebug19getElementTableSizeEv
PSP2_IMPORT_FUNC SceLibXml, 0001, F00, 0x90b82579, _ZN3sce3Xml12MemAllocatorD0Ev
PSP2_IMPORT_FUNC SceLibXml, 0001, F00, 0x92ebc9f8, _ZN3sce3Xml3Dom8NodeListD1Ev
PSP2_IMPORT_FUNC SceLibXml, 0001, F00, 0x94aaa71d, _ZN3sce3Xml11InitializerC2Ev
PSP2_IMPORT_FUNC SceLibXml, 0001, F00, 0x95077028, _ZN3sce3Xml10SimpleDataC2Ev
PSP2_IMPORT_FUNC SceLibXml, 0001, F00, 0x9531c3cd, _ZNK3sce3Xml3Dom8Document12getAttributeEyPKNS0_6StringE
PSP2_IMPORT_FUNC SceLibXml, 0001, F00, 0x99c58389, _ZN3sce3Xml3Dom15DocumentBuilderD2Ev
PSP2_IMPORT_FUNC SceLibXml, 0001, F00, 0x9bd3722b, _ZNK3sce3Xml3Dom4Node13getParentNodeEv
PSP2_IMPORT_FUNC SceLibXml, 0001, F00, 0x9cbd82d4, _ZN3sce3Xml13AttributeListC1ERKS1_
PSP2_IMPORT_FUNC SceLibXml, 0001, F00, 0xa11c2aed, _ZN3sce3Xml3Sax6ParserD1Ev
PSP2_IMPORT_FUNC SceLibXml, 0001, F00, 0xa17502c1, _ZN3sce3Xml6StringC1Ev
PSP2_IMPORT_FUNC SceLibXml, 0001, F00, 0xa2431c2b, _ZN3sce3Xml3Dom15DocumentBuilder16setResolveEntityEb
PSP2_IMPORT_FUNC SceLibXml, 0001, F00, 0xa2b40fa7, _ZN3sce3Xml3Sax6Parser5resetEv
PSP2_IMPORT_FUNC SceLibXml, 0001, F00, 0xa41ed241, _ZNK3sce3Xml3Dom8NodeList8findItemEPKNS0_6StringE
PSP2_IMPORT_FUNC SceLibXml, 0001, F00, 0xa4d99d40, _ZNK3sce3Xml3Dom8Document10isReadOnlyEv
PSP2_IMPORT_FUNC SceLibXml, 0001, F00, 0xa5b902d4, _ZN3sce3Xml4AttraSERKS1_
PSP2_IMPORT_FUNC SceLibXml, 0001, F00, 0xa7e983e2, _ZN3sce3Xml4Util9strResultEi
PSP2_IMPORT_FUNC SceLibXml, 0001, F00, 0xa98b5758, _ZNK3sce3Xml3Dom8Document9getParentEy
PSP2_IMPORT_FUNC SceLibXml, 0001, F00, 0xaaa08fa8, _ZN3sce3Xml11InitializerD2Ev
PSP2_IMPORT_FUNC SceLibXml, 0001, F00, 0xb1ca0e34, _ZN3sce3Xml3Dom8NodeListC1ERKS2_
PSP2_IMPORT_FUNC SceLibXml, 0001, F00, 0xb34d9672, _ZNK3sce3Xml3Dom8Document7getRootEv
PSP2_IMPORT_FUNC SceLibXml, 0001, F00, 0xb405a149, _ZNK3sce3Xml3Dom4Node13getAttributesEv
PSP2_IMPORT_FUNC SceLibXml, 0001, F00, 0xb4547c88, _ZN3sce3Xml11InitializerD1Ev
PSP2_IMPORT_FUNC SceLibXml, 0001, F00, 0xb4851bec, _ZN3sce3Xml4AttrC2ERKS1_
PSP2_IMPORT_FUNC SceLibXml, 0001, F00, 0xb4a33b78, _ZN3sce3Xml3Dom8Document10initializeEPKNS0_11InitializerE
PSP2_IMPORT_FUNC SceLibXml, 0001, F00, 0xb7770e5e, _ZN3sce3Xml18SerializeParameterC1Ev
PSP2_IMPORT_FUNC SceLibXml, 0001, F00, 0xb77bf8a0, _ZN3sce3Xml3Sax6Parser16setResolveEntityEb
PSP2_IMPORT_FUNC SceLibXml, 0001, F00, 0xb8c4d13c, _ZN3sce3Xml3Dom15DocumentBuilder20setSkipIgnorableTextEb
PSP2_IMPORT_FUNC SceLibXml, 0001, F00, 0xb97bf737, _ZN3sce3Xml3Dom8NodeListC2ERKS2_
PSP2_IMPORT_FUNC SceLibXml, 0001, F00, 0xb9e6f81a, _ZN3sce3Xml4AttrD2Ev
PSP2_IMPORT_FUNC SceLibXml, 0001, F00, 0xba8b7374, _ZN3sce3Xml23setMemManagerDebugLevelEi
PSP2_IMPORT_FUNC SceLibXml, 0001, F00, 0xbad4aafa, _ZNK3sce3Xml3Dom8NodeListixEj
PSP2_IMPORT_FUNC SceLibXml, 0001, F00, 0xbbacfe87, _ZN3sce3Xml3Dom15DocumentBuilder10initializeEPKNS0_11InitializerE
PSP2_IMPORT_FUNC SceLibXml, 0001, F00, 0xbca5e62a, _ZN3sce3Xml3Dom8Document13recurseDeleteEy
PSP2_IMPORT_FUNC SceLibXml, 0001, F00, 0xbf13fde6, _ZN3sce3Xml11InitializerC1Ev
PSP2_IMPORT_FUNC SceLibXml, 0001, F00, 0xc09abf87, _ZN3sce3Xml4AttrC1ERKS1_
PSP2_IMPORT_FUNC SceLibXml, 0001, F00, 0xc5e7431a, _ZNK3sce3Xml3Dom8Document13hasChildNodesEy
PSP2_IMPORT_FUNC SceLibXml, 0001, F00, 0xccee4e7c, _ZN3sce3Xml13AttributeList5clearEv
PSP2_IMPORT_FUNC SceLibXml, 0001, F00, 0xcd65b91f, _ZNK3sce3Xml3Dom8Document11getAttrNameEy
PSP2_IMPORT_FUNC SceLibXml, 0001, F00, 0xcdd1d418, _ZNK3sce3Xml3Dom8NodeList4itemEj
PSP2_IMPORT_FUNC SceLibXml, 0001, F00, 0xcdec3f43, _ZNK3sce3Xml3Dom8Document13getAttributesEyPNS1_8NodeListE
PSP2_IMPORT_FUNC SceLibXml, 0001, F00, 0xce1dae23, _ZN3sce3Xml3Sax6Parser26setSkipIgnorableWhiteSpaceEb
PSP2_IMPORT_FUNC SceLibXml, 0001, F00, 0xced5e0ff, _ZNK3sce3Xml3Dom4Node11getNodeTypeEv
PSP2_IMPORT_FUNC SceLibXml, 0001, F00, 0xd016f1bc, _ZN3sce3Xml4AttrC1Ev
PSP2_IMPORT_FUNC SceLibXml, 0001, F00, 0xd08ee434, _ZN3sce3Xml13AttributeList12addAttributeEPKNS0_6StringES4_
PSP2_IMPORT_FUNC SceLibXml, 0001, F00, 0xd2bfbc47, _ZNK3sce3Xml3Dom8Document20getElementsByTagNameEyPKNS0_6StringEPNS1_8NodeListE
PSP2_IMPORT_FUNC SceLibXml, 0001, F00, 0xd428753a, _ZNK3sce3Xml3Dom8Document9getStatusEv
PSP2_IMPORT_FUNC SceLibXml, 0001, F00, 0xd61caafc, _ZN3sce3Xml14VarAllocBufferD0Ev
PSP2_IMPORT_FUNC SceLibXml, 0001, F00, 0xd622a7fe, _ZN3sce3Xml3Dom8DocumentaSERKS2_
PSP2_IMPORT_FUNC SceLibXml, 0001, F00, 0xd785ba85, _ZN3sce3Xml6StringC2ERKS1_
PSP2_IMPORT_FUNC SceLibXml, 0001, F00, 0xd9217fc8, _ZN3sce3Xml14VarAllocBufferD1Ev
PSP2_IMPORT_FUNC SceLibXml, 0001, F00, 0xd945184a, _ZN3sce3Xml3Dom8Document11resetStatusEv
PSP2_IMPORT_FUNC SceLibXml, 0001, F00, 0xd95d3824, _ZN3sce3Xml14VarAllocBuffer7copyStrEPKcj
PSP2_IMPORT_FUNC SceLibXml, 0001, F00, 0xdac75e49, _ZNK3sce3Xml3Dom8Document13getEntityTypeEy
PSP2_IMPORT_FUNC SceLibXml, 0001, F00, 0xdefeafd2, _ZN3sce3Xml3Dom8Document7setTextEyPKNS0_6StringE
PSP2_IMPORT_FUNC SceLibXml, 0001, F00, 0xe1100fc0, _ZNK3sce3Xml3Dom13DocumentDebug16getAttrTableSizeEv
PSP2_IMPORT_FUNC SceLibXml, 0001, F00, 0xe1269956, _ZNK3sce3Xml3Dom4Node11getNodeNameEv
PSP2_IMPORT_FUNC SceLibXml, 0001, F00, 0xe1ab441d, _ZNK3sce3Xml3Dom8NodeList8findItemEy
PSP2_IMPORT_FUNC SceLibXml, 0001, F00, 0xe3d0a78a, _ZNK3sce3Xml3Dom8Document10getSiblingEy
PSP2_IMPORT_FUNC SceLibXml, 0001, F00, 0xe5314387, _ZN3sce3Xml4Attr10initializeEPKNS0_11InitializerE
PSP2_IMPORT_FUNC SceLibXml, 0001, F00, 0xe6ba9c73, _ZN3sce3Xml3Dom8DocumentC2Ev
PSP2_IMPORT_FUNC SceLibXml, 0001, F00, 0xe93eacfc, _ZN3sce3Xml14VarAllocBuffer9terminateEv
PSP2_IMPORT_FUNC SceLibXml, 0001, F00, 0xe982e681, _ZN3sce3Xml12MemAllocatorC2Ev
PSP2_IMPORT_FUNC SceLibXml, 0001, F00, 0xe9995f58, _ZN3sce3Xml3Dom8NodeList10removeItemEy
PSP2_IMPORT_FUNC SceLibXml, 0001, F00, 0xea19c7cf, _ZN3sce3Xml3Dom8Document12setAttributeEyPKNS0_6StringES5_
PSP2_IMPORT_FUNC SceLibXml, 0001, F00, 0xea805296, _ZNK3sce3Xml3Dom8Document13hasAttributesEy
PSP2_IMPORT_FUNC SceLibXml, 0001, F00, 0xec856072, _ZNK3sce3Xml3Dom8Document12getFirstAttrEy
PSP2_IMPORT_FUNC SceLibXml, 0001, F00, 0xec96bfc6, _ZNK3sce3Xml3Dom13DocumentDebug13getStructSizeEv
PSP2_IMPORT_FUNC SceLibXml, 0001, F00, 0xecc1f1a4, _ZN3sce3Xml6StringC2EPKc
PSP2_IMPORT_FUNC SceLibXml, 0001, F00, 0xecfa6a2a, _ZN3sce3Xml11Initializer10initializeEPKNS0_13InitParameterE
PSP2_IMPORT_FUNC SceLibXml, 0001, F00, 0xef4fa027, _ZN3sce3Xml14VarAllocBufferC2EPKNS0_11InitializerE
PSP2_IMPORT_FUNC SceLibXml, 0001, F00, 0xf1db18b1, _ZN3sce3Xml3Dom8Document15removeAttributeEyPKNS0_6StringE
PSP2_IMPORT_FUNC SceLibXml, 0001, F00, 0xf2c8950d, _ZN3sce3Xml3Sax6Parser9terminateEv
PSP2_IMPORT_FUNC SceLibXml, 0001, F00, 0xf351d753, _ZN3sce3Xml3Dom15DocumentBuilder26setSkipIgnorableWhiteSpaceEb
PSP2_IMPORT_FUNC SceLibXml, 0001, F00, 0xf399f763, _ZN3sce3Xml3Dom8DocumentC2ERKS2_
PSP2_IMPORT_FUNC SceLibXml, 0001, F00, 0xf65270fc, _ZN3sce3Xml18SerializeParameterC2Ev
PSP2_IMPORT_FUNC SceLibXml, 0001, F00, 0xfa921c6e, _ZN3sce3Xml3Dom8NodeList11insertFirstEy
PSP2_IMPORT_FUNC SceLibXml, 0001, F00, 0xfb207925, _ZN3sce3Xml3Dom8DocumentD1Ev
PSP2_IMPORT_FUNC SceLibXml, 0001, F00, 0xfb9edbf9, _ZNK3sce3Xml3Dom8NodeList9getLengthEv
PSP2_IMPORT_FUNC SceLibXml, 0001, F00, 0xfbcf0d3e, _ZNK3sce3Xml3Dom8Document12getLastChildEy
PSP2_IMPORT_FUNC SceLibXml, 0001, F00, 0xfc61fdf1, _ZNK3sce3Xml3Dom8Document13getChildNodesEyPNS1_8NodeListE
PSP2_IMPORT_FUNC SceLibXml, 0001, F00, 0xfe99676e, _ZN3sce3Xml14VarAllocBuffer7copyStrERKNS0_6StringE
